ARM GAS  C:\Users\opatiny\AppData\Local\Temp\ccs2JfIN.s 			page 1


   1              		.cpu cortex-m4
   2              		.eabi_attribute 27, 1
   3              		.eabi_attribute 28, 1
   4              		.eabi_attribute 20, 1
   5              		.eabi_attribute 21, 1
   6              		.eabi_attribute 23, 3
   7              		.eabi_attribute 24, 1
   8              		.eabi_attribute 25, 1
   9              		.eabi_attribute 26, 1
  10              		.eabi_attribute 30, 1
  11              		.eabi_attribute 34, 1
  12              		.eabi_attribute 18, 4
  13              		.file	"stm32f3xx_it.c"
  14              		.text
  15              	.Ltext0:
  16              		.cfi_sections	.debug_frame
  17              		.section	.text.NMI_Handler,"ax",%progbits
  18              		.align	1
  19              		.global	NMI_Handler
  20              		.arch armv7e-m
  21              		.syntax unified
  22              		.thumb
  23              		.thumb_func
  24              		.fpu fpv4-sp-d16
  26              	NMI_Handler:
  27              	.LFB126:
  28              		.file 1 "Core/Src/stm32f3xx_it.c"
   1:Core/Src/stm32f3xx_it.c **** /* USER CODE BEGIN Header */
   2:Core/Src/stm32f3xx_it.c **** /**
   3:Core/Src/stm32f3xx_it.c ****   ******************************************************************************
   4:Core/Src/stm32f3xx_it.c ****   * @file    stm32f3xx_it.c
   5:Core/Src/stm32f3xx_it.c ****   * @brief   Interrupt Service Routines.
   6:Core/Src/stm32f3xx_it.c ****   ******************************************************************************
   7:Core/Src/stm32f3xx_it.c ****   * @attention
   8:Core/Src/stm32f3xx_it.c ****   *
   9:Core/Src/stm32f3xx_it.c ****   * <h2><center>&copy; Copyright (c) 2019 STMicroelectronics.
  10:Core/Src/stm32f3xx_it.c ****   * All rights reserved.</center></h2>
  11:Core/Src/stm32f3xx_it.c ****   *
  12:Core/Src/stm32f3xx_it.c ****   * This software component is licensed by ST under BSD 3-Clause license,
  13:Core/Src/stm32f3xx_it.c ****   * the "License"; You may not use this file except in compliance with the
  14:Core/Src/stm32f3xx_it.c ****   * License. You may obtain a copy of the License at:
  15:Core/Src/stm32f3xx_it.c ****   *                        opensource.org/licenses/BSD-3-Clause
  16:Core/Src/stm32f3xx_it.c ****   *
  17:Core/Src/stm32f3xx_it.c ****   ******************************************************************************
  18:Core/Src/stm32f3xx_it.c ****   */
  19:Core/Src/stm32f3xx_it.c **** /* USER CODE END Header */
  20:Core/Src/stm32f3xx_it.c **** 
  21:Core/Src/stm32f3xx_it.c **** /* Includes ------------------------------------------------------------------*/
  22:Core/Src/stm32f3xx_it.c **** #include "main.h"
  23:Core/Src/stm32f3xx_it.c **** #include "stm32f3xx_it.h"
  24:Core/Src/stm32f3xx_it.c **** /* Private includes ----------------------------------------------------------*/
  25:Core/Src/stm32f3xx_it.c **** /* USER CODE BEGIN Includes */
  26:Core/Src/stm32f3xx_it.c **** /* USER CODE END Includes */
  27:Core/Src/stm32f3xx_it.c **** 
  28:Core/Src/stm32f3xx_it.c **** /* Private typedef -----------------------------------------------------------*/
  29:Core/Src/stm32f3xx_it.c **** /* USER CODE BEGIN TD */
  30:Core/Src/stm32f3xx_it.c **** 
ARM GAS  C:\Users\opatiny\AppData\Local\Temp\ccs2JfIN.s 			page 2


  31:Core/Src/stm32f3xx_it.c **** /* USER CODE END TD */
  32:Core/Src/stm32f3xx_it.c **** 
  33:Core/Src/stm32f3xx_it.c **** /* Private define ------------------------------------------------------------*/
  34:Core/Src/stm32f3xx_it.c **** /* USER CODE BEGIN PD */
  35:Core/Src/stm32f3xx_it.c ****  
  36:Core/Src/stm32f3xx_it.c **** /* USER CODE END PD */
  37:Core/Src/stm32f3xx_it.c **** 
  38:Core/Src/stm32f3xx_it.c **** /* Private macro -------------------------------------------------------------*/
  39:Core/Src/stm32f3xx_it.c **** /* USER CODE BEGIN PM */
  40:Core/Src/stm32f3xx_it.c **** 
  41:Core/Src/stm32f3xx_it.c **** /* USER CODE END PM */
  42:Core/Src/stm32f3xx_it.c **** 
  43:Core/Src/stm32f3xx_it.c **** /* Private variables ---------------------------------------------------------*/
  44:Core/Src/stm32f3xx_it.c **** /* USER CODE BEGIN PV */
  45:Core/Src/stm32f3xx_it.c **** 
  46:Core/Src/stm32f3xx_it.c **** /* USER CODE END PV */
  47:Core/Src/stm32f3xx_it.c **** 
  48:Core/Src/stm32f3xx_it.c **** /* Private function prototypes -----------------------------------------------*/
  49:Core/Src/stm32f3xx_it.c **** /* USER CODE BEGIN PFP */
  50:Core/Src/stm32f3xx_it.c **** 
  51:Core/Src/stm32f3xx_it.c **** /* USER CODE END PFP */
  52:Core/Src/stm32f3xx_it.c **** 
  53:Core/Src/stm32f3xx_it.c **** /* Private user code ---------------------------------------------------------*/
  54:Core/Src/stm32f3xx_it.c **** /* USER CODE BEGIN 0 */
  55:Core/Src/stm32f3xx_it.c **** 
  56:Core/Src/stm32f3xx_it.c **** /* USER CODE END 0 */
  57:Core/Src/stm32f3xx_it.c **** 
  58:Core/Src/stm32f3xx_it.c **** /* External variables --------------------------------------------------------*/
  59:Core/Src/stm32f3xx_it.c **** 
  60:Core/Src/stm32f3xx_it.c **** /* USER CODE BEGIN EV */
  61:Core/Src/stm32f3xx_it.c **** 
  62:Core/Src/stm32f3xx_it.c **** /* USER CODE END EV */
  63:Core/Src/stm32f3xx_it.c **** 
  64:Core/Src/stm32f3xx_it.c **** /******************************************************************************/
  65:Core/Src/stm32f3xx_it.c **** /*           Cortex-M4 Processor Interruption and Exception Handlers          */ 
  66:Core/Src/stm32f3xx_it.c **** /******************************************************************************/
  67:Core/Src/stm32f3xx_it.c **** /**
  68:Core/Src/stm32f3xx_it.c ****   * @brief This function handles Non maskable interrupt.
  69:Core/Src/stm32f3xx_it.c ****   */
  70:Core/Src/stm32f3xx_it.c **** void NMI_Handler(void)
  71:Core/Src/stm32f3xx_it.c **** {
  29              		.loc 1 71 1 view -0
  30              		.cfi_startproc
  31              		@ args = 0, pretend = 0, frame = 0
  32              		@ frame_needed = 0, uses_anonymous_args = 0
  33              		@ link register save eliminated.
  72:Core/Src/stm32f3xx_it.c ****   /* USER CODE BEGIN NonMaskableInt_IRQn 0 */
  73:Core/Src/stm32f3xx_it.c **** 
  74:Core/Src/stm32f3xx_it.c ****   /* USER CODE END NonMaskableInt_IRQn 0 */
  75:Core/Src/stm32f3xx_it.c ****   /* USER CODE BEGIN NonMaskableInt_IRQn 1 */
  76:Core/Src/stm32f3xx_it.c **** 
  77:Core/Src/stm32f3xx_it.c ****   /* USER CODE END NonMaskableInt_IRQn 1 */
  78:Core/Src/stm32f3xx_it.c **** }
  34              		.loc 1 78 1 view .LVU1
  35 0000 7047     		bx	lr
  36              		.cfi_endproc
  37              	.LFE126:
ARM GAS  C:\Users\opatiny\AppData\Local\Temp\ccs2JfIN.s 			page 3


  39              		.section	.text.HardFault_Handler,"ax",%progbits
  40              		.align	1
  41              		.global	HardFault_Handler
  42              		.syntax unified
  43              		.thumb
  44              		.thumb_func
  45              		.fpu fpv4-sp-d16
  47              	HardFault_Handler:
  48              	.LFB127:
  79:Core/Src/stm32f3xx_it.c **** 
  80:Core/Src/stm32f3xx_it.c **** /**
  81:Core/Src/stm32f3xx_it.c ****   * @brief This function handles Hard fault interrupt.
  82:Core/Src/stm32f3xx_it.c ****   */
  83:Core/Src/stm32f3xx_it.c **** void HardFault_Handler(void)
  84:Core/Src/stm32f3xx_it.c **** {
  49              		.loc 1 84 1 view -0
  50              		.cfi_startproc
  51              		@ Volatile: function does not return.
  52              		@ args = 0, pretend = 0, frame = 0
  53              		@ frame_needed = 0, uses_anonymous_args = 0
  54              		@ link register save eliminated.
  55              	.L3:
  85:Core/Src/stm32f3xx_it.c ****   /* USER CODE BEGIN HardFault_IRQn 0 */
  86:Core/Src/stm32f3xx_it.c **** 
  87:Core/Src/stm32f3xx_it.c ****   /* USER CODE END HardFault_IRQn 0 */
  88:Core/Src/stm32f3xx_it.c ****   while (1)
  56              		.loc 1 88 3 discriminator 1 view .LVU3
  89:Core/Src/stm32f3xx_it.c ****   {
  90:Core/Src/stm32f3xx_it.c ****     /* USER CODE BEGIN W1_HardFault_IRQn 0 */
  91:Core/Src/stm32f3xx_it.c ****     /* USER CODE END W1_HardFault_IRQn 0 */
  92:Core/Src/stm32f3xx_it.c ****   }
  57              		.loc 1 92 3 discriminator 1 view .LVU4
  58 0000 FEE7     		b	.L3
  59              		.cfi_endproc
  60              	.LFE127:
  62              		.section	.text.MemManage_Handler,"ax",%progbits
  63              		.align	1
  64              		.global	MemManage_Handler
  65              		.syntax unified
  66              		.thumb
  67              		.thumb_func
  68              		.fpu fpv4-sp-d16
  70              	MemManage_Handler:
  71              	.LFB128:
  93:Core/Src/stm32f3xx_it.c **** }
  94:Core/Src/stm32f3xx_it.c **** 
  95:Core/Src/stm32f3xx_it.c **** /**
  96:Core/Src/stm32f3xx_it.c ****   * @brief This function handles Memory management fault.
  97:Core/Src/stm32f3xx_it.c ****   */
  98:Core/Src/stm32f3xx_it.c **** void MemManage_Handler(void)
  99:Core/Src/stm32f3xx_it.c **** {
  72              		.loc 1 99 1 view -0
  73              		.cfi_startproc
  74              		@ Volatile: function does not return.
  75              		@ args = 0, pretend = 0, frame = 0
  76              		@ frame_needed = 0, uses_anonymous_args = 0
  77              		@ link register save eliminated.
ARM GAS  C:\Users\opatiny\AppData\Local\Temp\ccs2JfIN.s 			page 4


  78              	.L5:
 100:Core/Src/stm32f3xx_it.c ****   /* USER CODE BEGIN MemoryManagement_IRQn 0 */
 101:Core/Src/stm32f3xx_it.c **** 
 102:Core/Src/stm32f3xx_it.c ****   /* USER CODE END MemoryManagement_IRQn 0 */
 103:Core/Src/stm32f3xx_it.c ****   while (1)
  79              		.loc 1 103 3 discriminator 1 view .LVU6
 104:Core/Src/stm32f3xx_it.c ****   {
 105:Core/Src/stm32f3xx_it.c ****     /* USER CODE BEGIN W1_MemoryManagement_IRQn 0 */
 106:Core/Src/stm32f3xx_it.c ****     /* USER CODE END W1_MemoryManagement_IRQn 0 */
 107:Core/Src/stm32f3xx_it.c ****   }
  80              		.loc 1 107 3 discriminator 1 view .LVU7
  81 0000 FEE7     		b	.L5
  82              		.cfi_endproc
  83              	.LFE128:
  85              		.section	.text.BusFault_Handler,"ax",%progbits
  86              		.align	1
  87              		.global	BusFault_Handler
  88              		.syntax unified
  89              		.thumb
  90              		.thumb_func
  91              		.fpu fpv4-sp-d16
  93              	BusFault_Handler:
  94              	.LFB129:
 108:Core/Src/stm32f3xx_it.c **** }
 109:Core/Src/stm32f3xx_it.c **** 
 110:Core/Src/stm32f3xx_it.c **** /**
 111:Core/Src/stm32f3xx_it.c ****   * @brief This function handles Pre-fetch fault, memory access fault.
 112:Core/Src/stm32f3xx_it.c ****   */
 113:Core/Src/stm32f3xx_it.c **** void BusFault_Handler(void)
 114:Core/Src/stm32f3xx_it.c **** {
  95              		.loc 1 114 1 view -0
  96              		.cfi_startproc
  97              		@ Volatile: function does not return.
  98              		@ args = 0, pretend = 0, frame = 0
  99              		@ frame_needed = 0, uses_anonymous_args = 0
 100              		@ link register save eliminated.
 101              	.L7:
 115:Core/Src/stm32f3xx_it.c ****   /* USER CODE BEGIN BusFault_IRQn 0 */
 116:Core/Src/stm32f3xx_it.c **** 
 117:Core/Src/stm32f3xx_it.c ****   /* USER CODE END BusFault_IRQn 0 */
 118:Core/Src/stm32f3xx_it.c ****   while (1)
 102              		.loc 1 118 3 discriminator 1 view .LVU9
 119:Core/Src/stm32f3xx_it.c ****   {
 120:Core/Src/stm32f3xx_it.c ****     /* USER CODE BEGIN W1_BusFault_IRQn 0 */
 121:Core/Src/stm32f3xx_it.c ****     /* USER CODE END W1_BusFault_IRQn 0 */
 122:Core/Src/stm32f3xx_it.c ****   }
 103              		.loc 1 122 3 discriminator 1 view .LVU10
 104 0000 FEE7     		b	.L7
 105              		.cfi_endproc
 106              	.LFE129:
 108              		.section	.text.UsageFault_Handler,"ax",%progbits
 109              		.align	1
 110              		.global	UsageFault_Handler
 111              		.syntax unified
 112              		.thumb
 113              		.thumb_func
 114              		.fpu fpv4-sp-d16
ARM GAS  C:\Users\opatiny\AppData\Local\Temp\ccs2JfIN.s 			page 5


 116              	UsageFault_Handler:
 117              	.LFB130:
 123:Core/Src/stm32f3xx_it.c **** }
 124:Core/Src/stm32f3xx_it.c **** 
 125:Core/Src/stm32f3xx_it.c **** /**
 126:Core/Src/stm32f3xx_it.c ****   * @brief This function handles Undefined instruction or illegal state.
 127:Core/Src/stm32f3xx_it.c ****   */
 128:Core/Src/stm32f3xx_it.c **** void UsageFault_Handler(void)
 129:Core/Src/stm32f3xx_it.c **** {
 118              		.loc 1 129 1 view -0
 119              		.cfi_startproc
 120              		@ Volatile: function does not return.
 121              		@ args = 0, pretend = 0, frame = 0
 122              		@ frame_needed = 0, uses_anonymous_args = 0
 123              		@ link register save eliminated.
 124              	.L9:
 130:Core/Src/stm32f3xx_it.c ****   /* USER CODE BEGIN UsageFault_IRQn 0 */
 131:Core/Src/stm32f3xx_it.c **** 
 132:Core/Src/stm32f3xx_it.c ****   /* USER CODE END UsageFault_IRQn 0 */
 133:Core/Src/stm32f3xx_it.c ****   while (1)
 125              		.loc 1 133 3 discriminator 1 view .LVU12
 134:Core/Src/stm32f3xx_it.c ****   {
 135:Core/Src/stm32f3xx_it.c ****     /* USER CODE BEGIN W1_UsageFault_IRQn 0 */
 136:Core/Src/stm32f3xx_it.c ****     /* USER CODE END W1_UsageFault_IRQn 0 */
 137:Core/Src/stm32f3xx_it.c ****   }
 126              		.loc 1 137 3 discriminator 1 view .LVU13
 127 0000 FEE7     		b	.L9
 128              		.cfi_endproc
 129              	.LFE130:
 131              		.section	.text.SVC_Handler,"ax",%progbits
 132              		.align	1
 133              		.global	SVC_Handler
 134              		.syntax unified
 135              		.thumb
 136              		.thumb_func
 137              		.fpu fpv4-sp-d16
 139              	SVC_Handler:
 140              	.LFB131:
 138:Core/Src/stm32f3xx_it.c **** }
 139:Core/Src/stm32f3xx_it.c **** 
 140:Core/Src/stm32f3xx_it.c **** /**
 141:Core/Src/stm32f3xx_it.c ****   * @brief This function handles System service call via SWI instruction.
 142:Core/Src/stm32f3xx_it.c ****   */
 143:Core/Src/stm32f3xx_it.c **** void SVC_Handler(void)
 144:Core/Src/stm32f3xx_it.c **** {
 141              		.loc 1 144 1 view -0
 142              		.cfi_startproc
 143              		@ args = 0, pretend = 0, frame = 0
 144              		@ frame_needed = 0, uses_anonymous_args = 0
 145              		@ link register save eliminated.
 145:Core/Src/stm32f3xx_it.c ****   /* USER CODE BEGIN SVCall_IRQn 0 */
 146:Core/Src/stm32f3xx_it.c **** 
 147:Core/Src/stm32f3xx_it.c ****   /* USER CODE END SVCall_IRQn 0 */
 148:Core/Src/stm32f3xx_it.c ****   /* USER CODE BEGIN SVCall_IRQn 1 */
 149:Core/Src/stm32f3xx_it.c **** 
 150:Core/Src/stm32f3xx_it.c ****   /* USER CODE END SVCall_IRQn 1 */
 151:Core/Src/stm32f3xx_it.c **** }
ARM GAS  C:\Users\opatiny\AppData\Local\Temp\ccs2JfIN.s 			page 6


 146              		.loc 1 151 1 view .LVU15
 147 0000 7047     		bx	lr
 148              		.cfi_endproc
 149              	.LFE131:
 151              		.section	.text.DebugMon_Handler,"ax",%progbits
 152              		.align	1
 153              		.global	DebugMon_Handler
 154              		.syntax unified
 155              		.thumb
 156              		.thumb_func
 157              		.fpu fpv4-sp-d16
 159              	DebugMon_Handler:
 160              	.LFB132:
 152:Core/Src/stm32f3xx_it.c **** 
 153:Core/Src/stm32f3xx_it.c **** /**
 154:Core/Src/stm32f3xx_it.c ****   * @brief This function handles Debug monitor.
 155:Core/Src/stm32f3xx_it.c ****   */
 156:Core/Src/stm32f3xx_it.c **** void DebugMon_Handler(void)
 157:Core/Src/stm32f3xx_it.c **** {
 161              		.loc 1 157 1 view -0
 162              		.cfi_startproc
 163              		@ args = 0, pretend = 0, frame = 0
 164              		@ frame_needed = 0, uses_anonymous_args = 0
 165              		@ link register save eliminated.
 158:Core/Src/stm32f3xx_it.c ****   /* USER CODE BEGIN DebugMonitor_IRQn 0 */
 159:Core/Src/stm32f3xx_it.c **** 
 160:Core/Src/stm32f3xx_it.c ****   /* USER CODE END DebugMonitor_IRQn 0 */
 161:Core/Src/stm32f3xx_it.c ****   /* USER CODE BEGIN DebugMonitor_IRQn 1 */
 162:Core/Src/stm32f3xx_it.c **** 
 163:Core/Src/stm32f3xx_it.c ****   /* USER CODE END DebugMonitor_IRQn 1 */
 164:Core/Src/stm32f3xx_it.c **** }
 166              		.loc 1 164 1 view .LVU17
 167 0000 7047     		bx	lr
 168              		.cfi_endproc
 169              	.LFE132:
 171              		.section	.text.PendSV_Handler,"ax",%progbits
 172              		.align	1
 173              		.global	PendSV_Handler
 174              		.syntax unified
 175              		.thumb
 176              		.thumb_func
 177              		.fpu fpv4-sp-d16
 179              	PendSV_Handler:
 180              	.LFB133:
 165:Core/Src/stm32f3xx_it.c **** 
 166:Core/Src/stm32f3xx_it.c **** /**
 167:Core/Src/stm32f3xx_it.c ****   * @brief This function handles Pendable request for system service.
 168:Core/Src/stm32f3xx_it.c ****   */
 169:Core/Src/stm32f3xx_it.c **** void PendSV_Handler(void)
 170:Core/Src/stm32f3xx_it.c **** {
 181              		.loc 1 170 1 view -0
 182              		.cfi_startproc
 183              		@ args = 0, pretend = 0, frame = 0
 184              		@ frame_needed = 0, uses_anonymous_args = 0
 185              		@ link register save eliminated.
 171:Core/Src/stm32f3xx_it.c ****   /* USER CODE BEGIN PendSV_IRQn 0 */
 172:Core/Src/stm32f3xx_it.c **** 
ARM GAS  C:\Users\opatiny\AppData\Local\Temp\ccs2JfIN.s 			page 7


 173:Core/Src/stm32f3xx_it.c ****   /* USER CODE END PendSV_IRQn 0 */
 174:Core/Src/stm32f3xx_it.c ****   /* USER CODE BEGIN PendSV_IRQn 1 */
 175:Core/Src/stm32f3xx_it.c **** 
 176:Core/Src/stm32f3xx_it.c ****   /* USER CODE END PendSV_IRQn 1 */
 177:Core/Src/stm32f3xx_it.c **** }
 186              		.loc 1 177 1 view .LVU19
 187 0000 7047     		bx	lr
 188              		.cfi_endproc
 189              	.LFE133:
 191              		.section	.text.SysTick_Handler,"ax",%progbits
 192              		.align	1
 193              		.global	SysTick_Handler
 194              		.syntax unified
 195              		.thumb
 196              		.thumb_func
 197              		.fpu fpv4-sp-d16
 199              	SysTick_Handler:
 200              	.LFB134:
 178:Core/Src/stm32f3xx_it.c **** 
 179:Core/Src/stm32f3xx_it.c **** /**
 180:Core/Src/stm32f3xx_it.c ****   * @brief This function handles System tick timer.
 181:Core/Src/stm32f3xx_it.c ****   */
 182:Core/Src/stm32f3xx_it.c **** void SysTick_Handler(void)
 183:Core/Src/stm32f3xx_it.c **** {
 201              		.loc 1 183 1 view -0
 202              		.cfi_startproc
 203              		@ args = 0, pretend = 0, frame = 0
 204              		@ frame_needed = 0, uses_anonymous_args = 0
 205 0000 08B5     		push	{r3, lr}
 206              	.LCFI0:
 207              		.cfi_def_cfa_offset 8
 208              		.cfi_offset 3, -8
 209              		.cfi_offset 14, -4
 184:Core/Src/stm32f3xx_it.c ****   /* USER CODE BEGIN SysTick_IRQn 0 */
 185:Core/Src/stm32f3xx_it.c **** 
 186:Core/Src/stm32f3xx_it.c ****   /* USER CODE END SysTick_IRQn 0 */
 187:Core/Src/stm32f3xx_it.c ****   HAL_IncTick();
 210              		.loc 1 187 3 view .LVU21
 211 0002 FFF7FEFF 		bl	HAL_IncTick
 212              	.LVL0:
 188:Core/Src/stm32f3xx_it.c ****   /* USER CODE BEGIN SysTick_IRQn 1 */
 189:Core/Src/stm32f3xx_it.c **** 
 190:Core/Src/stm32f3xx_it.c ****   /* USER CODE END SysTick_IRQn 1 */
 191:Core/Src/stm32f3xx_it.c **** }
 213              		.loc 1 191 1 is_stmt 0 view .LVU22
 214 0006 08BD     		pop	{r3, pc}
 215              		.cfi_endproc
 216              	.LFE134:
 218              		.text
 219              	.Letext0:
 220              		.file 2 "c:\\vsarm\\armcc\\arm-none-eabi\\include\\machine\\_default_types.h"
 221              		.file 3 "c:\\vsarm\\armcc\\arm-none-eabi\\include\\sys\\_stdint.h"
 222              		.file 4 "Drivers/CMSIS/Include/core_cm4.h"
 223              		.file 5 "Drivers/CMSIS/Device/ST/STM32F3xx/Include/system_stm32f3xx.h"
 224              		.file 6 "c:\\vsarm\\armcc\\arm-none-eabi\\include\\sys\\lock.h"
 225              		.file 7 "c:\\vsarm\\armcc\\arm-none-eabi\\include\\sys\\_types.h"
 226              		.file 8 "c:\\vsarm\\armcc\\lib\\gcc\\arm-none-eabi\\8.2.1\\include\\stddef.h"
ARM GAS  C:\Users\opatiny\AppData\Local\Temp\ccs2JfIN.s 			page 8


 227              		.file 9 "c:\\vsarm\\armcc\\arm-none-eabi\\include\\sys\\reent.h"
 228              		.file 10 "Drivers/STM32F3xx_HAL_Driver/Inc/stm32f3xx_hal.h"
ARM GAS  C:\Users\opatiny\AppData\Local\Temp\ccs2JfIN.s 			page 9

